; ModuleID = 'source-C-CXX/15/11.c'
source_filename = "source-C-CXX/15/11.c"
target datalayout = "e-m:e-p270:32:32-p271:32:32-p272:64:64-i64:64-f80:128-n8:16:32:64-S128"
target triple = "x86_64-pc-linux-gnu"

@.str = private unnamed_addr constant [3 x i8] c"%d\00", align 1

; Function Attrs: nofree nounwind sspstrong uwtable
define dso_local i32 @main() local_unnamed_addr #0 {
  %1 = alloca i32, align 4
  %2 = bitcast i32* %1 to i8*
  call void @llvm.lifetime.start.p0i8(i64 4, i8* nonnull %2) #4
  %3 = call i32 (i8*, ...) @__isoc99_scanf(i8* getelementptr inbounds ([3 x i8], [3 x i8]* @.str, i64 0, i64 0), i32* nonnull %1)
  %4 = load i32, i32* %1, align 4, !tbaa !5
  %5 = icmp eq i32 %4, 0
  br i1 %5, label %6, label %10

6:                                                ; preds = %0
  %7 = call i32 @putchar(i32 48)
  %8 = load i32, i32* %1, align 4, !tbaa !5
  %9 = icmp eq i32 %8, 0
  br i1 %9, label %32, label %10

10:                                               ; preds = %0, %6
  %11 = phi i32 [ %8, %6 ], [ %4, %0 ]
  br label %17

12:                                               ; preds = %17
  %13 = srem i32 %11, 10
  %14 = sdiv i32 %11, 10
  store i32 %14, i32* %1, align 4, !tbaa !5
  %15 = call i32 (i8*, ...) @printf(i8* nonnull dereferenceable(1) getelementptr inbounds ([3 x i8], [3 x i8]* @.str, i64 0, i64 0), i32 %13)
  %16 = icmp eq i32 %19, 0
  br i1 %16, label %32, label %24, !llvm.loop !9

17:                                               ; preds = %10, %17
  %18 = phi i32 [ %20, %17 ], [ %11, %10 ]
  %19 = phi i32 [ %21, %17 ], [ 0, %10 ]
  %20 = sdiv i32 %18, 10
  %21 = add nuw nsw i32 %19, 1
  %22 = add i32 %18, 9
  %23 = icmp ult i32 %22, 19
  br i1 %23, label %12, label %17, !llvm.loop !11

24:                                               ; preds = %12, %24
  %25 = phi i32 [ %26, %24 ], [ 0, %12 ]
  %26 = add nuw i32 %25, 1
  %27 = load i32, i32* %1, align 4, !tbaa !5
  %28 = srem i32 %27, 10
  %29 = sdiv i32 %27, 10
  store i32 %29, i32* %1, align 4, !tbaa !5
  %30 = call i32 (i8*, ...) @printf(i8* nonnull dereferenceable(1) getelementptr inbounds ([3 x i8], [3 x i8]* @.str, i64 0, i64 0), i32 %28)
  %31 = icmp eq i32 %26, %19
  br i1 %31, label %32, label %24, !llvm.loop !9

32:                                               ; preds = %24, %12, %6
  call void @llvm.lifetime.end.p0i8(i64 4, i8* nonnull %2) #4
  ret i32 0
}

; Function Attrs: argmemonly mustprogress nofree nosync nounwind willreturn
declare void @llvm.lifetime.start.p0i8(i64 immarg, i8* nocapture) #1

; Function Attrs: nofree nounwind
declare noundef i32 @__isoc99_scanf(i8* nocapture noundef readonly, ...) local_unnamed_addr #2

; Function Attrs: nofree nounwind
declare noundef i32 @printf(i8* nocapture noundef readonly, ...) local_unnamed_addr #2

; Function Attrs: argmemonly mustprogress nofree nosync nounwind willreturn
declare void @llvm.lifetime.end.p0i8(i64 immarg, i8* nocapture) #1

; Function Attrs: nofree nounwind
declare noundef i32 @putchar(i32 noundef) local_unnamed_addr #3


!llvm.module.flags = !{!0, !1, !2, !3}
!llvm.ident = !{!4}

!0 = !{i32 1, !"wchar_size", i32 4}
!1 = !{i32 7, !"PIC Level", i32 2}
!2 = !{i32 7, !"PIE Level", i32 2}
!3 = !{i32 7, !"uwtable", i32 1}
!4 = !{!"clang version 13.0.0"}
!5 = !{!6, !6, i64 0}
!6 = !{!"int", !7, i64 0}
!7 = !{!"omnipotent char", !8, i64 0}
!8 = !{!"Simple C/C++ TBAA"}
!9 = distinct !{!9, !10}
!10 = !{!"llvm.loop.mustprogress"}
!11 = distinct !{!11, !10}
